SF:C:\repos\lost-metrics\lost-metrics-core\src\models\entity.rs
FN:84,_RNCNvMNtNtCse9dRTehTiTT_17lost_metrics_core6models6entityNtB4_3Npc14has_valid_name0B8_
FN:80,_RNvMNtNtCse9dRTehTiTT_17lost_metrics_core6models6entityNtB2_3Npc14has_valid_name
FN:70,_RNvMNtNtCse9dRTehTiTT_17lost_metrics_core6models6entityNtB2_3Npc7is_boss
FN:27,_RNvXs5_NtNtCse9dRTehTiTT_17lost_metrics_core6models6entityNtB5_10EntityTypeINtNtCs1HK5c7eE0eW_4core7convert7TryFromReE8try_fromB9_
FNDA:0,_RNCNvMNtNtCse9dRTehTiTT_17lost_metrics_core6models6entityNtB4_3Npc14has_valid_name0B8_
FNDA:0,_RNvMNtNtCse9dRTehTiTT_17lost_metrics_core6models6entityNtB2_3Npc14has_valid_name
FNDA:0,_RNvMNtNtCse9dRTehTiTT_17lost_metrics_core6models6entityNtB2_3Npc7is_boss
FNDA:0,_RNvXs5_NtNtCse9dRTehTiTT_17lost_metrics_core6models6entityNtB5_10EntityTypeINtNtCs1HK5c7eE0eW_4core7convert7TryFromReE8try_fromB9_
FNF:4
FNH:0
DA:27,0
DA:70,0
DA:71,0
DA:75,0
DA:76,0
DA:78,0
DA:80,0
DA:82,0
DA:83,0
DA:84,0
DA:85,0
DA:86,0
DA:87,0
DA:88,0
DA:89,0
DA:90,0
BRF:0
BRH:0
LF:17
LH:0
end_of_record
SF:C:\repos\lost-metrics\lost-metrics-core\src\models\skill.rs
FN:145,_RNCINvXs0_NvXNvNtNtCse9dRTehTiTT_17lost_metrics_core6models5skillsd_1__NtBd_13SkillBuffDataNtNtCs6z1HQYMuprr_5serde2de11Deserialize11deserializeNtB8_9___VisitorNtB1t_7Visitor9visit_seqpE0Bh_
FN:107,_RNvXNtNtCse9dRTehTiTT_17lost_metrics_core6models5skillNtB2_11TripodLevelNtNtCs1HK5c7eE0eW_4core3cmp9PartialEq2eq
FN:123,_RNvXs0_NtNtCse9dRTehTiTT_17lost_metrics_core6models5skillNtB5_11TripodIndexNtNtCs1HK5c7eE0eW_4core3cmp9PartialEq2eq
FNDA:0,_RNCINvXs0_NvXNvNtNtCse9dRTehTiTT_17lost_metrics_core6models5skillsd_1__NtBd_13SkillBuffDataNtNtCs6z1HQYMuprr_5serde2de11Deserialize11deserializeNtB8_9___VisitorNtB1t_7Visitor9visit_seqpE0Bh_
FNDA:0,_RNvXNtNtCse9dRTehTiTT_17lost_metrics_core6models5skillNtB2_11TripodLevelNtNtCs1HK5c7eE0eW_4core3cmp9PartialEq2eq
FNDA:0,_RNvXs0_NtNtCse9dRTehTiTT_17lost_metrics_core6models5skillNtB5_11TripodIndexNtNtCs1HK5c7eE0eW_4core3cmp9PartialEq2eq
FNF:3
FNH:0
DA:107,0
DA:108,0
DA:109,0
DA:123,0
DA:124,0
DA:125,0
DA:145,0
BRF:0
BRH:0
LF:7
LH:0
end_of_record
SF:C:\repos\lost-metrics\lost-metrics-core\src\models\stats.rs
FN:84,_RNCINvXs0_NvXNvNtNtCse9dRTehTiTT_17lost_metrics_core6models5statss5_1__NtBd_11DamageStatsNtNtCs6z1HQYMuprr_5serde2de11Deserialize11deserializeNtB8_9___VisitorNtB1r_7Visitor9visit_seqpE0Bh_
FN:84,_RNCINvXs0_NvXNvNtNtCse9dRTehTiTT_17lost_metrics_core6models5statss5_1__NtBd_11DamageStatsNtNtCs6z1HQYMuprr_5serde2de11Deserialize11deserializeNtB8_9___VisitorNtB1r_7Visitor9visit_seqpEs_0Bh_
FN:167,_RNvMNtNtCse9dRTehTiTT_17lost_metrics_core6models5statsNtB2_9BossHpLog3new
FNDA:0,_RNCINvXs0_NvXNvNtNtCse9dRTehTiTT_17lost_metrics_core6models5statss5_1__NtBd_11DamageStatsNtNtCs6z1HQYMuprr_5serde2de11Deserialize11deserializeNtB8_9___VisitorNtB1r_7Visitor9visit_seqpE0Bh_
FNDA:0,_RNCINvXs0_NvXNvNtNtCse9dRTehTiTT_17lost_metrics_core6models5statss5_1__NtBd_11DamageStatsNtNtCs6z1HQYMuprr_5serde2de11Deserialize11deserializeNtB8_9___VisitorNtB1r_7Visitor9visit_seqpEs_0Bh_
FNDA:0,_RNvMNtNtCse9dRTehTiTT_17lost_metrics_core6models5statsNtB2_9BossHpLog3new
FNF:2
FNH:0
DA:84,0
DA:167,0
DA:168,0
DA:169,0
BRF:0
BRH:0
LF:4
LH:0
end_of_record
SF:C:\repos\lost-metrics\lost-metrics-core\src\models\utils.rs
FN:12,_RINvNtNtCse9dRTehTiTT_17lost_metrics_core6models5utils23int_or_string_as_stringpEB6_
FN:4,_RNvNtNtCse9dRTehTiTT_17lost_metrics_core6models5utils12default_true
FN:8,_RNvNtNtCse9dRTehTiTT_17lost_metrics_core6models5utils13default_scale
FNDA:0,_RINvNtNtCse9dRTehTiTT_17lost_metrics_core6models5utils23int_or_string_as_stringpEB6_
FNDA:0,_RNvNtNtCse9dRTehTiTT_17lost_metrics_core6models5utils12default_true
FNDA:0,_RNvNtNtCse9dRTehTiTT_17lost_metrics_core6models5utils13default_scale
FNF:3
FNH:0
DA:4,0
DA:5,0
DA:6,0
DA:8,0
DA:9,0
DA:10,0
DA:12,0
DA:13,0
DA:14,0
DA:15,0
DA:16,0
DA:17,0
DA:18,0
DA:19,0
DA:20,0
DA:22,0
BRF:0
BRH:0
LF:16
LH:0
end_of_record